target datalayout = "e-m:e-p270:32:32-p271:32:32-p272:64:64-i64:64-i128:128-f80:128-n8:16:32:64-S128"
target triple = "x86_64-pc-linux-gnu"

%struct.AVTXContext = type { i32, i32, ptr, ptr, ptr, ptr, [4 x ptr], i32, [4 x ptr], ptr, i32, i64, i32, float, double, ptr }

; Function Attrs: cold nounwind optsize uwtable
define internal i32 @ff_tx_fft_inplace_small_init_double_c(ptr noundef %0, ptr noundef %1, i64 noundef %2, ptr noundef %3, i32 noundef %4, i32 noundef %5, ptr noundef %6) #0 {
  %8 = alloca i32, align 4
  %9 = alloca ptr, align 8
  %10 = alloca ptr, align 8
  %11 = alloca i64, align 8
  %12 = alloca ptr, align 8
  %13 = alloca i32, align 4
  %14 = alloca i32, align 4
  %15 = alloca ptr, align 8
  store ptr %0, ptr %9, align 8, !tbaa !17
  store ptr %1, ptr %10, align 8, !tbaa !60
  store i64 %2, ptr %11, align 8, !tbaa !30
  store ptr %3, ptr %12, align 8, !tbaa !61
  store i32 %4, ptr %13, align 4, !tbaa !4
  store i32 %5, ptr %14, align 4, !tbaa !4
  store ptr %6, ptr %15, align 8, !tbaa !8
  %16 = load i32, ptr %13, align 4, !tbaa !4
  %17 = sext i32 %16 to i64
  %18 = mul i64 %17, 16
  %19 = call noalias ptr @av_malloc(i64 noundef %18)
  %20 = load ptr, ptr %9, align 8, !tbaa !17
  %21 = getelementptr inbounds nuw %struct.AVTXContext, ptr %20, i32 0, i32 4
  store ptr %19, ptr %21, align 8, !tbaa !66
  %22 = icmp ne ptr %19, null
  br i1 %22, label %24, label %23

23:                                               ; preds = %7
  store i32 -12, ptr %8, align 4
  br label %35

24:                                               ; preds = %7
  %25 = load i64, ptr %11, align 8, !tbaa !30
  %26 = and i64 %25, -2
  store i64 %26, ptr %11, align 8, !tbaa !30
  %27 = load ptr, ptr %9, align 8, !tbaa !17
  %28 = load ptr, ptr %10, align 8, !tbaa !60
  %29 = load i64, ptr %11, align 8, !tbaa !30
  %30 = load ptr, ptr %12, align 8, !tbaa !61
  %31 = load i32, ptr %13, align 4, !tbaa !4
  %32 = load i32, ptr %14, align 4, !tbaa !4
  %33 = load ptr, ptr %15, align 8, !tbaa !8
  %34 = call i32 @ff_tx_fft_init_double_c(ptr noundef %27, ptr noundef %28, i64 noundef %29, ptr noundef %30, i32 noundef %31, i32 noundef %32, ptr noundef %33) #12
  store i32 %34, ptr %8, align 4
  br label %35

35:                                               ; preds = %24, %23
  %36 = load i32, ptr %8, align 4
  ret i32 %36
}